target datalayout = "e-m:e-p270:32:32-p271:32:32-p272:64:64-i64:64-i128:128-f80:128-n8:16:32:64-S128"
target triple = "x86_64-pc-linux-gnu"

%struct.expert_field = type { i32, i32 }
%struct.MessageHeader = type { [4 x i8], %struct.Version, i8, i8, i32, i32, i32, ptr }
%struct.Version = type { i8, i8 }

@hf_Tango_Device_4_write_read_attributes_4_return_loop = internal global i32 0, align 4
@hf_Tango_Device_4_write_read_attributes_4_values_loop = internal global i32 0, align 4
@ei_tango_unknown_giop_msg = internal global %struct.expert_field zeroinitializer, align 4
@ei_tango_unknown_exception = internal global %struct.expert_field zeroinitializer, align 4
@ett_giop_struct = internal global i32 0, align 4
@ett_giop_sequence = internal global i32 0, align 4
@ett_giop_union = internal global i32 0, align 4
@boundary = internal global i32 12, align 4
@.str.770 = private unnamed_addr constant [22 x i8] c"union Tango_ClntIdent\00", align 1
@.str.771 = private unnamed_addr constant [21 x i8] c"Unknown exception %d\00", align 1
@.str.772 = private unnamed_addr constant [24 x i8] c"Unknown GIOP message %d\00", align 1
@.str.796 = private unnamed_addr constant [30 x i8] c"struct Tango_AttributeValue_4\00", align 1
@.str.835 = private unnamed_addr constant [55 x i8] c"sequence Tango_Device_4_write_read_attributes_4_values\00", align 1
@.str.836 = private unnamed_addr constant [55 x i8] c"sequence Tango_Device_4_write_read_attributes_4_return\00", align 1

; Function Attrs: null_pointer_is_valid sspstrong uwtable
define internal void @decode_Tango_Device_4_write_read_attributes_4(ptr noundef %0, ptr noundef %1, ptr noundef %2, ptr noundef %3, ptr noundef %4, ptr noundef %5, ptr noundef %6, i1 noundef zeroext %7) #0 {
  %9 = alloca ptr, align 8
  %10 = alloca ptr, align 8
  %11 = alloca ptr, align 8
  %12 = alloca ptr, align 8
  %13 = alloca ptr, align 8
  %14 = alloca ptr, align 8
  %15 = alloca ptr, align 8
  %16 = alloca i8, align 1
  %17 = alloca i32, align 4
  %18 = alloca i32, align 4
  %19 = alloca i32, align 4
  %20 = alloca i32, align 4
  %21 = alloca ptr, align 8
  %22 = alloca ptr, align 8
  %23 = alloca ptr, align 8
  %24 = alloca ptr, align 8
  %25 = alloca ptr, align 8
  store ptr %0, ptr %9, align 8
  store ptr %1, ptr %10, align 8
  store ptr %2, ptr %11, align 8
  store ptr %3, ptr %12, align 8
  store ptr %4, ptr %13, align 8
  store ptr %5, ptr %14, align 8
  store ptr %6, ptr %15, align 8
  %26 = zext i1 %7 to i8
  store i8 %26, ptr %16, align 1
  call void @llvm.lifetime.start.p0(i64 4, ptr %17) #6
  call void @llvm.lifetime.start.p0(i64 4, ptr %18) #6
  call void @llvm.lifetime.start.p0(i64 4, ptr %19) #6
  call void @llvm.lifetime.start.p0(i64 4, ptr %20) #6
  %27 = load ptr, ptr %14, align 8
  %28 = getelementptr inbounds nuw %struct.MessageHeader, ptr %27, i32 0, i32 3
  %29 = load i8, ptr %28, align 1
  %30 = zext i8 %29 to i32
  switch i32 %30, label %151 [
    i32 0, label %31
    i32 1, label %92
  ]

31:                                               ; preds = %8
  %32 = load ptr, ptr %9, align 8
  %33 = load ptr, ptr %13, align 8
  %34 = load i8, ptr %16, align 1, !range !6, !noundef !7
  %35 = trunc i8 %34 to i1
  %36 = load i32, ptr @boundary, align 4
  %37 = call i32 @get_CDR_ulong(ptr noundef %32, ptr noundef %33, i1 noundef zeroext %35, i32 noundef %36)
  store i32 %37, ptr %17, align 4
  %38 = load ptr, ptr %11, align 8
  %39 = load i32, ptr @hf_Tango_Device_4_write_read_attributes_4_values_loop, align 4
  %40 = load ptr, ptr %9, align 8
  %41 = load ptr, ptr %13, align 8
  %42 = load i32, ptr %41, align 4
  %43 = sub i32 %42, 4
  %44 = load i32, ptr %17, align 4
  %45 = call ptr @proto_tree_add_uint(ptr noundef %38, i32 noundef %39, ptr noundef %40, i32 noundef %43, i32 noundef 4, i32 noundef %44)
  call void @llvm.lifetime.start.p0(i64 8, ptr %21) #6
  %46 = load ptr, ptr %11, align 8
  store ptr %46, ptr %21, align 8
  %47 = load ptr, ptr %11, align 8
  %48 = load ptr, ptr %9, align 8
  %49 = load ptr, ptr %13, align 8
  %50 = load i32, ptr %49, align 4
  %51 = load i32, ptr @ett_giop_sequence, align 4
  %52 = call ptr @proto_tree_add_subtree(ptr noundef %47, ptr noundef %48, i32 noundef %50, i32 noundef -1, i32 noundef %51, ptr noundef null, ptr noundef @.str.835)
  store ptr %52, ptr %11, align 8
  store i32 0, ptr %18, align 4
  br label %53

53:                                               ; preds = %73, %31
  %54 = load i32, ptr %18, align 4
  %55 = load i32, ptr %17, align 4
  %56 = icmp ult i32 %54, %55
  br i1 %56, label %57, label %76

57:                                               ; preds = %53
  call void @llvm.lifetime.start.p0(i64 8, ptr %22) #6
  %58 = load ptr, ptr %11, align 8
  %59 = load ptr, ptr %9, align 8
  %60 = load ptr, ptr %13, align 8
  %61 = load i32, ptr %60, align 4
  %62 = load i32, ptr @ett_giop_struct, align 4
  %63 = call ptr @proto_tree_add_subtree(ptr noundef %58, ptr noundef %59, i32 noundef %61, i32 noundef -1, i32 noundef %62, ptr noundef null, ptr noundef @.str.796)
  store ptr %63, ptr %22, align 8
  %64 = load ptr, ptr %9, align 8
  %65 = load ptr, ptr %10, align 8
  %66 = load ptr, ptr %22, align 8
  %67 = load ptr, ptr %12, align 8
  %68 = load ptr, ptr %13, align 8
  %69 = load ptr, ptr %14, align 8
  %70 = load ptr, ptr %15, align 8
  %71 = load i8, ptr %16, align 1, !range !6, !noundef !7
  %72 = trunc i8 %71 to i1
  call void @decode_Tango_AttributeValue_4_st(ptr noundef %64, ptr noundef %65, ptr noundef %66, ptr noundef %67, ptr noundef %68, ptr noundef %69, ptr noundef %70, i1 noundef zeroext %72)
  call void @llvm.lifetime.end.p0(i64 8, ptr %22) #6
  br label %73

73:                                               ; preds = %57
  %74 = load i32, ptr %18, align 4
  %75 = add i32 %74, 1
  store i32 %75, ptr %18, align 4
  br label %53, !llvm.loop !20

76:                                               ; preds = %53
  %77 = load ptr, ptr %21, align 8
  store ptr %77, ptr %11, align 8
  call void @llvm.lifetime.end.p0(i64 8, ptr %21) #6
  call void @llvm.lifetime.start.p0(i64 8, ptr %23) #6
  %78 = load ptr, ptr %11, align 8
  %79 = load ptr, ptr %9, align 8
  %80 = load ptr, ptr %13, align 8
  %81 = load i32, ptr %80, align 4
  %82 = load i32, ptr @ett_giop_union, align 4
  %83 = call ptr @proto_tree_add_subtree(ptr noundef %78, ptr noundef %79, i32 noundef %81, i32 noundef -1, i32 noundef %82, ptr noundef null, ptr noundef @.str.770)
  store ptr %83, ptr %23, align 8
  %84 = load ptr, ptr %9, align 8
  %85 = load ptr, ptr %10, align 8
  %86 = load ptr, ptr %23, align 8
  %87 = load ptr, ptr %13, align 8
  %88 = load ptr, ptr %14, align 8
  %89 = load ptr, ptr %15, align 8
  %90 = load i8, ptr %16, align 1, !range !6, !noundef !7
  %91 = trunc i8 %90 to i1
  call void @decode_Tango_ClntIdent_un(ptr noundef %84, ptr noundef %85, ptr noundef %86, ptr noundef %87, ptr noundef %88, ptr noundef %89, i1 noundef zeroext %91)
  call void @llvm.lifetime.end.p0(i64 8, ptr %23) #6
  br label %159

92:                                               ; preds = %8
  %93 = load ptr, ptr %14, align 8
  %94 = getelementptr inbounds nuw %struct.MessageHeader, ptr %93, i32 0, i32 6
  %95 = load i32, ptr %94, align 8
  switch i32 %95, label %143 [
    i32 0, label %96
    i32 1, label %150
  ]

96:                                               ; preds = %92
  %97 = load ptr, ptr %9, align 8
  %98 = load ptr, ptr %13, align 8
  %99 = load i8, ptr %16, align 1, !range !6, !noundef !7
  %100 = trunc i8 %99 to i1
  %101 = load i32, ptr @boundary, align 4
  %102 = call i32 @get_CDR_ulong(ptr noundef %97, ptr noundef %98, i1 noundef zeroext %100, i32 noundef %101)
  store i32 %102, ptr %19, align 4
  %103 = load ptr, ptr %11, align 8
  %104 = load i32, ptr @hf_Tango_Device_4_write_read_attributes_4_return_loop, align 4
  %105 = load ptr, ptr %9, align 8
  %106 = load ptr, ptr %13, align 8
  %107 = load i32, ptr %106, align 4
  %108 = sub i32 %107, 4
  %109 = load i32, ptr %19, align 4
  %110 = call ptr @proto_tree_add_uint(ptr noundef %103, i32 noundef %104, ptr noundef %105, i32 noundef %108, i32 noundef 4, i32 noundef %109)
  call void @llvm.lifetime.start.p0(i64 8, ptr %24) #6
  %111 = load ptr, ptr %11, align 8
  store ptr %111, ptr %24, align 8
  %112 = load ptr, ptr %11, align 8
  %113 = load ptr, ptr %9, align 8
  %114 = load ptr, ptr %13, align 8
  %115 = load i32, ptr %114, align 4
  %116 = load i32, ptr @ett_giop_sequence, align 4
  %117 = call ptr @proto_tree_add_subtree(ptr noundef %112, ptr noundef %113, i32 noundef %115, i32 noundef -1, i32 noundef %116, ptr noundef null, ptr noundef @.str.836)
  store ptr %117, ptr %11, align 8
  store i32 0, ptr %20, align 4
  br label %118

118:                                              ; preds = %138, %96
  %119 = load i32, ptr %20, align 4
  %120 = load i32, ptr %19, align 4
  %121 = icmp ult i32 %119, %120
  br i1 %121, label %122, label %141

122:                                              ; preds = %118
  call void @llvm.lifetime.start.p0(i64 8, ptr %25) #6
  %123 = load ptr, ptr %11, align 8
  %124 = load ptr, ptr %9, align 8
  %125 = load ptr, ptr %13, align 8
  %126 = load i32, ptr %125, align 4
  %127 = load i32, ptr @ett_giop_struct, align 4
  %128 = call ptr @proto_tree_add_subtree(ptr noundef %123, ptr noundef %124, i32 noundef %126, i32 noundef -1, i32 noundef %127, ptr noundef null, ptr noundef @.str.796)
  store ptr %128, ptr %25, align 8
  %129 = load ptr, ptr %9, align 8
  %130 = load ptr, ptr %10, align 8
  %131 = load ptr, ptr %25, align 8
  %132 = load ptr, ptr %12, align 8
  %133 = load ptr, ptr %13, align 8
  %134 = load ptr, ptr %14, align 8
  %135 = load ptr, ptr %15, align 8
  %136 = load i8, ptr %16, align 1, !range !6, !noundef !7
  %137 = trunc i8 %136 to i1
  call void @decode_Tango_AttributeValue_4_st(ptr noundef %129, ptr noundef %130, ptr noundef %131, ptr noundef %132, ptr noundef %133, ptr noundef %134, ptr noundef %135, i1 noundef zeroext %137)
  call void @llvm.lifetime.end.p0(i64 8, ptr %25) #6
  br label %138

138:                                              ; preds = %122
  %139 = load i32, ptr %20, align 4
  %140 = add i32 %139, 1
  store i32 %140, ptr %20, align 4
  br label %118, !llvm.loop !21

141:                                              ; preds = %118
  %142 = load ptr, ptr %24, align 8
  store ptr %142, ptr %11, align 8
  call void @llvm.lifetime.end.p0(i64 8, ptr %24) #6
  br label %150

143:                                              ; preds = %92
  %144 = load ptr, ptr %10, align 8
  %145 = load ptr, ptr %12, align 8
  %146 = load ptr, ptr %14, align 8
  %147 = getelementptr inbounds nuw %struct.MessageHeader, ptr %146, i32 0, i32 6
  %148 = load i32, ptr %147, align 8
  %149 = call ptr (ptr, ptr, ptr, ptr, ...) @expert_add_info_format(ptr noundef %144, ptr noundef %145, ptr noundef @ei_tango_unknown_exception, ptr noundef @.str.771, i32 noundef %148)
  br label %150

150:                                              ; preds = %143, %92, %141
  br label %159

151:                                              ; preds = %8
  %152 = load ptr, ptr %10, align 8
  %153 = load ptr, ptr %12, align 8
  %154 = load ptr, ptr %14, align 8
  %155 = getelementptr inbounds nuw %struct.MessageHeader, ptr %154, i32 0, i32 3
  %156 = load i8, ptr %155, align 1
  %157 = zext i8 %156 to i32
  %158 = call ptr (ptr, ptr, ptr, ptr, ...) @expert_add_info_format(ptr noundef %152, ptr noundef %153, ptr noundef @ei_tango_unknown_giop_msg, ptr noundef @.str.772, i32 noundef %157)
  br label %159

159:                                              ; preds = %151, %150, %76
  call void @llvm.lifetime.end.p0(i64 4, ptr %20) #6
  call void @llvm.lifetime.end.p0(i64 4, ptr %19) #6
  call void @llvm.lifetime.end.p0(i64 4, ptr %18) #6
  call void @llvm.lifetime.end.p0(i64 4, ptr %17) #6
  ret void
}